target datalayout = "e-m:e-p270:32:32-p271:32:32-p272:64:64-i64:64-i128:128-f80:128-n8:16:32:64-S128"
target triple = "x86_64-pc-linux-gnu"

%struct.tMPI_Thread_key_t = type { %struct.tMPI_Atomic, ptr }
%struct.tMPI_Atomic = type { i32, [60 x i8] }
%struct.tmpi_comm_ = type { %struct.tmpi_group_, %struct.tMPI_Barrier_t, ptr, ptr, i32, ptr, ptr, ptr, ptr, %struct.tMPI_Thread_mutex_t, %struct.tMPI_Thread_cond_t, %struct.tMPI_Thread_cond_t, ptr, ptr, ptr, ptr, ptr, ptr, %struct.tMPI_Atomic }
%struct.tmpi_group_ = type { i32, ptr }
%struct.tMPI_Barrier_t = type { %struct.tMPI_Atomic, i32, %struct.tMPI_Atomic }
%struct.tMPI_Thread_mutex_t = type { %struct.tMPI_Atomic, ptr }
%struct.tMPI_Thread_cond_t = type { %struct.tMPI_Atomic, ptr }
%struct.tmpi_thread = type { ptr, %struct.recv_envelope_list, ptr, %struct.free_envelope_list, %struct.tMPI_Atomic, %struct.tMPI_Event_t, %struct.req_list, ptr, ptr, ptr, ptr, i32, ptr }
%struct.recv_envelope_list = type { ptr, %struct.envelope }
%struct.envelope = type { i32, ptr, ptr, ptr, ptr, i64, ptr, i32, %struct.tMPI_Atomic, i32, ptr, ptr, i32, ptr, ptr, ptr, ptr }
%struct.free_envelope_list = type { ptr, ptr }
%struct.tMPI_Event_t = type { %struct.tMPI_Atomic, i32 }
%struct.req_list = type { ptr, ptr }
%struct.tmpi_global = type { ptr, i32, i32, %struct.tMPI_Spinlock, %struct.tMPI_Thread_mutex_t, %struct.tMPI_Thread_barrier_t, %struct.tMPI_Thread_mutex_t, %struct.timeval }
%struct.tMPI_Spinlock = type { i32, [60 x i8] }
%struct.tMPI_Thread_barrier_t = type { %struct.tMPI_Atomic, ptr, i32, i32, i32 }
%struct.timeval = type { i64, i64 }
%struct.send_envelope_list = type { ptr, %struct.tMPI_Atomic_ptr, %struct.tMPI_Atomic_ptr, ptr, ptr, i64 }
%struct.tMPI_Atomic_ptr = type { ptr, [56 x i8] }

@Nthreads = global i32 0, align 4
@id_key = global %struct.tMPI_Thread_key_t zeroinitializer, align 8
@tmpi_global = global ptr null, align 8
@TMPI_COMM_WORLD = external global ptr, align 8

; Function Attrs: mustprogress uwtable
define internal noundef i32 @_ZL16tMPI_Thread_initP11tmpi_thread(ptr noundef %0) #0 {
  %2 = alloca i32, align 4
  %3 = alloca ptr, align 8
  %4 = alloca i32, align 4
  %5 = alloca i32, align 4
  %6 = alloca i32, align 4
  %7 = alloca i32, align 4
  %8 = alloca i32, align 4
  %9 = alloca %struct.tMPI_Thread_key_t, align 8
  %10 = alloca i32, align 4
  store ptr %0, ptr %3, align 8, !tbaa !34
  call void @llvm.lifetime.start.p0(i64 4, ptr %4) #11
  call void @llvm.lifetime.start.p0(i64 4, ptr %5) #11
  %11 = load i32, ptr @Nthreads, align 4, !tbaa !30
  %12 = add nsw i32 %11, 1
  %13 = mul nsw i32 %12, 16
  store i32 %13, ptr %5, align 4, !tbaa !30
  call void @llvm.lifetime.start.p0(i64 4, ptr %6) #11
  store i32 16, ptr %6, align 4, !tbaa !30
  call void @llvm.lifetime.start.p0(i64 4, ptr %7) #11
  %14 = load i32, ptr @Nthreads, align 4, !tbaa !30
  %15 = add nsw i32 %14, 1
  %16 = mul nsw i32 %15, 16
  store i32 %16, ptr %7, align 4, !tbaa !30
  call void @llvm.lifetime.start.p0(i64 4, ptr %8) #11
  call void @llvm.memcpy.p0.p0.i64(ptr align 8 %9, ptr align 8 @id_key, i64 72, i1 false), !tbaa.struct !29
  %17 = load ptr, ptr %3, align 8, !tbaa !34
  %18 = call noundef i32 @_Z23tMPI_Thread_setspecific17tMPI_Thread_key_tPv(ptr noundef byval(%struct.tMPI_Thread_key_t) align 8 %9, ptr noundef %17)
  store i32 %18, ptr %4, align 4, !tbaa !30
  %19 = load i32, ptr %4, align 4, !tbaa !30
  %20 = icmp ne i32 %19, 0
  br i1 %20, label %21, label %23

21:                                               ; preds = %1
  %22 = load i32, ptr %4, align 4, !tbaa !30
  store i32 %22, ptr %2, align 4
  store i32 1, ptr %10, align 4
  br label %115

23:                                               ; preds = %1
  %24 = load ptr, ptr %3, align 8, !tbaa !34
  %25 = getelementptr inbounds nuw %struct.tmpi_thread, ptr %24, i32 0, i32 7
  %26 = load ptr, ptr @TMPI_COMM_WORLD, align 8, !tbaa !3
  %27 = call noundef i32 @_Z15tMPI_Comm_allocPP10tmpi_comm_S0_i(ptr noundef %25, ptr noundef %26, i32 noundef 1)
  store i32 %27, ptr %4, align 4, !tbaa !30
  %28 = load i32, ptr %4, align 4, !tbaa !30
  %29 = icmp ne i32 %28, 0
  br i1 %29, label %30, label %32

30:                                               ; preds = %23
  %31 = load i32, ptr %4, align 4, !tbaa !30
  store i32 %31, ptr %2, align 4
  store i32 1, ptr %10, align 4
  br label %115

32:                                               ; preds = %23
  %33 = load ptr, ptr %3, align 8, !tbaa !34
  %34 = load ptr, ptr %3, align 8, !tbaa !34
  %35 = getelementptr inbounds nuw %struct.tmpi_thread, ptr %34, i32 0, i32 7
  %36 = load ptr, ptr %35, align 8, !tbaa !36
  %37 = getelementptr inbounds nuw %struct.tmpi_comm_, ptr %36, i32 0, i32 0
  %38 = getelementptr inbounds nuw %struct.tmpi_group_, ptr %37, i32 0, i32 1
  %39 = load ptr, ptr %38, align 8, !tbaa !67
  %40 = getelementptr inbounds ptr, ptr %39, i64 0
  store ptr %33, ptr %40, align 8, !tbaa !34
  %41 = load ptr, ptr %3, align 8, !tbaa !34
  %42 = getelementptr inbounds nuw %struct.tmpi_thread, ptr %41, i32 0, i32 3
  %43 = load i32, ptr %5, align 4, !tbaa !30
  %44 = call noundef i32 @_Z23tMPI_Free_env_list_initP18free_envelope_listi(ptr noundef %42, i32 noundef %43)
  store i32 %44, ptr %4, align 4, !tbaa !30
  %45 = load i32, ptr %4, align 4, !tbaa !30
  %46 = icmp ne i32 %45, 0
  br i1 %46, label %47, label %49

47:                                               ; preds = %32
  %48 = load i32, ptr %4, align 4, !tbaa !30
  store i32 %48, ptr %2, align 4
  store i32 1, ptr %10, align 4
  br label %115

49:                                               ; preds = %32
  %50 = load ptr, ptr %3, align 8, !tbaa !34
  %51 = getelementptr inbounds nuw %struct.tmpi_thread, ptr %50, i32 0, i32 1
  %52 = call noundef i32 @_Z23tMPI_Recv_env_list_initP18recv_envelope_list(ptr noundef %51)
  store i32 %52, ptr %4, align 4, !tbaa !30
  %53 = load i32, ptr %4, align 4, !tbaa !30
  %54 = icmp ne i32 %53, 0
  br i1 %54, label %55, label %57

55:                                               ; preds = %49
  %56 = load i32, ptr %4, align 4, !tbaa !30
  store i32 %56, ptr %2, align 4
  store i32 1, ptr %10, align 4
  br label %115

57:                                               ; preds = %49
  %58 = load i32, ptr @Nthreads, align 4, !tbaa !30
  %59 = sext i32 %58 to i64
  %60 = mul i64 160, %59
  %61 = call noundef ptr @_Z11tMPI_Mallocm(i64 noundef %60)
  %62 = load ptr, ptr %3, align 8, !tbaa !34
  %63 = getelementptr inbounds nuw %struct.tmpi_thread, ptr %62, i32 0, i32 2
  store ptr %61, ptr %63, align 8, !tbaa !80
  %64 = load ptr, ptr %3, align 8, !tbaa !34
  %65 = getelementptr inbounds nuw %struct.tmpi_thread, ptr %64, i32 0, i32 2
  %66 = load ptr, ptr %65, align 8, !tbaa !80
  %67 = icmp eq ptr %66, null
  br i1 %67, label %68, label %69

68:                                               ; preds = %57
  store i32 1, ptr %2, align 4
  store i32 1, ptr %10, align 4
  br label %115

69:                                               ; preds = %57
  store i32 0, ptr %8, align 4, !tbaa !30
  br label %70

70:                                               ; preds = %88, %69
  %71 = load i32, ptr %8, align 4, !tbaa !30
  %72 = load i32, ptr @Nthreads, align 4, !tbaa !30
  %73 = icmp slt i32 %71, %72
  br i1 %73, label %74, label %91

74:                                               ; preds = %70
  %75 = load ptr, ptr %3, align 8, !tbaa !34
  %76 = getelementptr inbounds nuw %struct.tmpi_thread, ptr %75, i32 0, i32 2
  %77 = load ptr, ptr %76, align 8, !tbaa !80
  %78 = load i32, ptr %8, align 4, !tbaa !30
  %79 = sext i32 %78 to i64
  %80 = getelementptr inbounds %struct.send_envelope_list, ptr %77, i64 %79
  %81 = load i32, ptr %6, align 4, !tbaa !30
  %82 = call noundef i32 @_Z23tMPI_Send_env_list_initP18send_envelope_listi(ptr noundef %80, i32 noundef %81)
  store i32 %82, ptr %4, align 4, !tbaa !30
  %83 = load i32, ptr %4, align 4, !tbaa !30
  %84 = icmp ne i32 %83, 0
  br i1 %84, label %85, label %87

85:                                               ; preds = %74
  %86 = load i32, ptr %4, align 4, !tbaa !30
  store i32 %86, ptr %2, align 4
  store i32 1, ptr %10, align 4
  br label %115

87:                                               ; preds = %74
  br label %88

88:                                               ; preds = %87
  %89 = load i32, ptr %8, align 4, !tbaa !30
  %90 = add nsw i32 %89, 1
  store i32 %90, ptr %8, align 4, !tbaa !30
  br label %70, !llvm.loop !113

91:                                               ; preds = %70
  %92 = load ptr, ptr %3, align 8, !tbaa !34
  %93 = getelementptr inbounds nuw %struct.tmpi_thread, ptr %92, i32 0, i32 4
  %94 = getelementptr inbounds nuw %struct.tMPI_Atomic, ptr %93, i32 0, i32 0
  store i32 0, ptr %94, align 8, !tbaa !114
  %95 = load ptr, ptr %3, align 8, !tbaa !34
  %96 = getelementptr inbounds nuw %struct.tmpi_thread, ptr %95, i32 0, i32 5
  call void @_Z15tMPI_Event_initP12tMPI_Event_t(ptr noundef %96)
  %97 = load ptr, ptr %3, align 8, !tbaa !34
  %98 = getelementptr inbounds nuw %struct.tmpi_thread, ptr %97, i32 0, i32 6
  %99 = load i32, ptr %7, align 4, !tbaa !30
  %100 = call noundef i32 @_Z18tMPI_Req_list_initP8req_listi(ptr noundef %98, i32 noundef %99)
  store i32 %100, ptr %4, align 4, !tbaa !30
  %101 = load i32, ptr %4, align 4, !tbaa !30
  %102 = icmp ne i32 %101, 0
  br i1 %102, label %103, label %105

103:                                              ; preds = %91
  %104 = load i32, ptr %4, align 4, !tbaa !30
  store i32 %104, ptr %2, align 4
  store i32 1, ptr %10, align 4
  br label %115

105:                                              ; preds = %91
  %106 = load ptr, ptr @tmpi_global, align 8, !tbaa !63
  %107 = getelementptr inbounds nuw %struct.tmpi_global, ptr %106, i32 0, i32 5
  %108 = call noundef i32 @_Z24tMPI_Thread_barrier_waitP21tMPI_Thread_barrier_t(ptr noundef %107)
  store i32 %108, ptr %4, align 4, !tbaa !30
  %109 = load i32, ptr %4, align 4, !tbaa !30
  %110 = icmp ne i32 %109, 0
  br i1 %110, label %111, label %113

111:                                              ; preds = %105
  %112 = load i32, ptr %4, align 4, !tbaa !30
  store i32 %112, ptr %2, align 4
  store i32 1, ptr %10, align 4
  br label %115

113:                                              ; preds = %105
  %114 = load i32, ptr %4, align 4, !tbaa !30
  store i32 %114, ptr %2, align 4
  store i32 1, ptr %10, align 4
  br label %115

115:                                              ; preds = %113, %111, %103, %85, %68, %55, %47, %30, %21
  call void @llvm.lifetime.end.p0(i64 4, ptr %8) #11
  call void @llvm.lifetime.end.p0(i64 4, ptr %7) #11
  call void @llvm.lifetime.end.p0(i64 4, ptr %6) #11
  call void @llvm.lifetime.end.p0(i64 4, ptr %5) #11
  call void @llvm.lifetime.end.p0(i64 4, ptr %4) #11
  %116 = load i32, ptr %2, align 4
  ret i32 %116
}