; Function Attrs: mustprogress uwtable
define internal fastcc noundef i32 @_ZL16tMPI_Thread_initP11tmpi_thread(ptr noundef %0) unnamed_addr #0 {
  %2 = load i32, ptr @Nthreads, align 4, !tbaa !46
  %3 = shl i32 %2, 4
  %4 = add i32 %3, 16
  %5 = tail call noundef i32 @_Z23tMPI_Thread_setspecific17tMPI_Thread_key_tPv(ptr noundef nonnull byval(%struct.tMPI_Thread_key_t) align 8 @id_key, ptr noundef %0)
  %.not = icmp eq i32 %5, 0
  br i1 %.not, label %6, label %.loopexit

6:                                                ; preds = %1
  %7 = getelementptr inbounds nuw i8, ptr %0, i64 376
  %8 = load ptr, ptr @TMPI_COMM_WORLD, align 8, !tbaa !3
  %9 = tail call noundef i32 @_Z15tMPI_Comm_allocPP10tmpi_comm_S0_i(ptr noundef nonnull %7, ptr noundef %8, i32 noundef 1)
  %.not41 = icmp eq i32 %9, 0
  br i1 %.not41, label %10, label %.loopexit

10:                                               ; preds = %6
  %11 = load ptr, ptr %7, align 8, !tbaa !31
  %12 = getelementptr inbounds nuw i8, ptr %11, i64 8
  %13 = load ptr, ptr %12, align 8, !tbaa !59
  store ptr %0, ptr %13, align 8, !tbaa !29
  %14 = getelementptr inbounds nuw i8, ptr %0, i64 208
  %15 = tail call noundef i32 @_Z23tMPI_Free_env_list_initP18free_envelope_listi(ptr noundef nonnull %14, i32 noundef %4)
  %.not42 = icmp eq i32 %15, 0
  br i1 %.not42, label %16, label %.loopexit

16:                                               ; preds = %10
  %17 = getelementptr inbounds nuw i8, ptr %0, i64 8
  %18 = tail call noundef i32 @_Z23tMPI_Recv_env_list_initP18recv_envelope_list(ptr noundef nonnull %17)
  %.not43 = icmp eq i32 %18, 0
  br i1 %.not43, label %19, label %.loopexit

19:                                               ; preds = %16
  %20 = load i32, ptr @Nthreads, align 4, !tbaa !46
  %21 = sext i32 %20 to i64
  %22 = mul nsw i64 %21, 160
  %23 = tail call noundef ptr @_Z11tMPI_Mallocm(i64 noundef %22)
  %24 = getelementptr inbounds nuw i8, ptr %0, i64 200
  store ptr %23, ptr %24, align 8, !tbaa !84
  %25 = icmp eq ptr %23, null
  br i1 %25, label %.loopexit, label %.preheader

.preheader:                                       ; preds = %19
  %26 = load i32, ptr @Nthreads, align 4, !tbaa !46
  %27 = icmp sgt i32 %26, 0
  br i1 %27, label %.lr.ph, label %._crit_edge

28:                                               ; preds = %.lr.ph
  %indvars.iv.next = add nuw nsw i64 %indvars.iv, 1
  %29 = load i32, ptr @Nthreads, align 4, !tbaa !46
  %30 = sext i32 %29 to i64
  %31 = icmp slt i64 %indvars.iv.next, %30
  br i1 %31, label %.lr.ph, label %._crit_edge, !llvm.loop !98

.lr.ph:                                           ; preds = %.preheader, %28
  %indvars.iv = phi i64 [ %indvars.iv.next, %28 ], [ 0, %.preheader ]
  %32 = load ptr, ptr %24, align 8, !tbaa !84
  %33 = getelementptr inbounds nuw %struct.send_envelope_list, ptr %32, i64 %indvars.iv
  %34 = tail call noundef i32 @_Z23tMPI_Send_env_list_initP18send_envelope_listi(ptr noundef %33, i32 noundef 16)
  %.not46 = icmp eq i32 %34, 0
  br i1 %.not46, label %28, label %.loopexit

._crit_edge:                                      ; preds = %28, %.preheader
  %35 = getelementptr inbounds nuw i8, ptr %0, i64 224
  store i32 0, ptr %35, align 8, !tbaa !99
  %36 = getelementptr inbounds nuw i8, ptr %0, i64 288
  tail call void @_Z15tMPI_Event_initP12tMPI_Event_t(ptr noundef nonnull %36)
  %37 = getelementptr inbounds nuw i8, ptr %0, i64 360
  %38 = tail call noundef i32 @_Z18tMPI_Req_list_initP8req_listi(ptr noundef nonnull %37, i32 noundef %4)
  %.not44 = icmp eq i32 %38, 0
  br i1 %.not44, label %39, label %.loopexit

39:                                               ; preds = %._crit_edge
  %40 = load ptr, ptr @tmpi_global, align 8, !tbaa !53
  %41 = getelementptr inbounds nuw i8, ptr %40, i64 152
  %42 = tail call noundef i32 @_Z24tMPI_Thread_barrier_waitP21tMPI_Thread_barrier_t(ptr noundef nonnull %41)
  br label %.loopexit

.loopexit:                                        ; preds = %.lr.ph, %39, %._crit_edge, %19, %16, %10, %6, %1
  %.033 = phi i32 [ %5, %1 ], [ %9, %6 ], [ %15, %10 ], [ %18, %16 ], [ 1, %19 ], [ %38, %._crit_edge ], [ %42, %39 ], [ %34, %.lr.ph ]
  ret i32 %.033
}